; Function Attrs: nounwind uwtable
define i32 @Sfm_MffcRef_rec(ptr noundef readonly captures(none) %0, ptr noundef %1) local_unnamed_addr #2 {
  %3 = getelementptr inbounds nuw i8, ptr %0, i64 56
  %4 = load ptr, ptr %3, align 8, !tbaa !119
  %5 = tail call double @Mio_GateReadArea(ptr noundef %4) #25
  %6 = fptrunc double %5 to float
  %7 = fmul float %6, 1.000000e+03
  %8 = fptosi float %7 to i32
  %9 = getelementptr i8, ptr %0, i64 28
  %.val23 = load i32, ptr %9, align 4, !tbaa !121
  %10 = icmp sgt i32 %.val23, 0
  br i1 %10, label %.lr.ph, label %.critedge

.lr.ph:                                           ; preds = %2
  %11 = getelementptr i8, ptr %0, i64 32
  br label %12

12:                                               ; preds = %.lr.ph, %30
  %.val27 = phi i32 [ %.val23, %.lr.ph ], [ %.val, %30 ]
  %indvars.iv = phi i64 [ 0, %.lr.ph ], [ %indvars.iv.next, %30 ]
  %.025 = phi i32 [ %8, %.lr.ph ], [ %.1, %30 ]
  %.val17 = load ptr, ptr %0, align 8, !tbaa !124
  %.val18 = load ptr, ptr %11, align 8, !tbaa !125
  %13 = getelementptr i8, ptr %.val17, i64 32
  %.val17.val = load ptr, ptr %13, align 8, !tbaa !78
  %14 = getelementptr i8, ptr %.val17.val, i64 8
  %.val17.val.val = load ptr, ptr %14, align 8, !tbaa !80
  %15 = getelementptr inbounds nuw i32, ptr %.val18, i64 %indvars.iv
  %16 = load i32, ptr %15, align 4, !tbaa !96
  %17 = sext i32 %16 to i64
  %18 = getelementptr inbounds ptr, ptr %.val17.val.val, i64 %17
  %19 = load ptr, ptr %18, align 8, !tbaa !81
  %20 = getelementptr inbounds nuw i8, ptr %19, i64 44
  %21 = load i32, ptr %20, align 4, !tbaa !126
  %22 = add nsw i32 %21, 1
  store i32 %22, ptr %20, align 4, !tbaa !126
  %23 = icmp eq i32 %21, 0
  br i1 %23, label %24, label %30

24:                                               ; preds = %12
  %25 = getelementptr i8, ptr %19, i64 20
  %.val19 = load i32, ptr %25, align 4
  %26 = and i32 %.val19, 15
  switch i32 %26, label %27 [
    i32 5, label %30
    i32 2, label %30
  ]

27:                                               ; preds = %24
  %28 = tail call i32 @Sfm_MffcRef_rec(ptr noundef nonnull %19, ptr noundef %1)
  %29 = add nsw i32 %28, %.025
  %.val.pre = load i32, ptr %9, align 4, !tbaa !121
  br label %30

30:                                               ; preds = %24, %24, %12, %27
  %.val = phi i32 [ %.val27, %24 ], [ %.val.pre, %27 ], [ %.val27, %12 ], [ %.val27, %24 ]
  %.1 = phi i32 [ %.025, %24 ], [ %29, %27 ], [ %.025, %12 ], [ %.025, %24 ]
  %indvars.iv.next = add nuw nsw i64 %indvars.iv, 1
  %31 = sext i32 %.val to i64
  %32 = icmp slt i64 %indvars.iv.next, %31
  br i1 %32, label %12, label %.critedge, !llvm.loop !128

.critedge:                                        ; preds = %30, %2
  %.0.lcssa = phi i32 [ %8, %2 ], [ %.1, %30 ]
  %.not = icmp eq ptr %1, null
  br i1 %.not, label %66, label %33

33:                                               ; preds = %.critedge
  %34 = getelementptr i8, ptr %0, i64 16
  %.val20 = load i32, ptr %34, align 8, !tbaa !129
  %35 = getelementptr inbounds nuw i8, ptr %1, i64 4
  %36 = load i32, ptr %35, align 4, !tbaa !85
  %37 = load i32, ptr %1, align 8, !tbaa !86
  %38 = icmp eq i32 %36, %37
  br i1 %38, label %39, label %.Vec_IntGrow.exit10_crit_edge.i

.Vec_IntGrow.exit10_crit_edge.i:                  ; preds = %33
  %.phi.trans.insert.i = getelementptr inbounds nuw i8, ptr %1, i64 8
  %.pre.i = load ptr, ptr %.phi.trans.insert.i, align 8, !tbaa !84
  br label %Vec_IntPush.exit

39:                                               ; preds = %33
  %40 = icmp slt i32 %36, 16
  br i1 %40, label %41, label %49

41:                                               ; preds = %39
  %42 = getelementptr inbounds nuw i8, ptr %1, i64 8
  %43 = load ptr, ptr %42, align 8, !tbaa !84
  %.not9.i.i = icmp eq ptr %43, null
  br i1 %.not9.i.i, label %46, label %44

44:                                               ; preds = %41
  %45 = tail call dereferenceable_or_null(64) ptr @realloc(ptr noundef nonnull %43, i64 noundef 64) #26
  br label %Vec_IntGrow.exit.i

46:                                               ; preds = %41
  %47 = tail call noalias dereferenceable_or_null(64) ptr @malloc(i64 noundef 64) #27
  br label %Vec_IntGrow.exit.i

Vec_IntGrow.exit.i:                               ; preds = %46, %44
  %48 = phi ptr [ %45, %44 ], [ %47, %46 ]
  store ptr %48, ptr %42, align 8, !tbaa !84
  store i32 16, ptr %1, align 8, !tbaa !86
  br label %Vec_IntPush.exit

49:                                               ; preds = %39
  %50 = shl nuw nsw i32 %36, 1
  %51 = getelementptr inbounds nuw i8, ptr %1, i64 8
  %52 = load ptr, ptr %51, align 8, !tbaa !84
  %.not9.i9.i = icmp eq ptr %52, null
  %53 = zext nneg i32 %50 to i64
  %54 = shl nuw nsw i64 %53, 2
  br i1 %.not9.i9.i, label %57, label %55

55:                                               ; preds = %49
  %56 = tail call ptr @realloc(ptr noundef nonnull %52, i64 noundef %54) #26
  br label %59

57:                                               ; preds = %49
  %58 = tail call noalias ptr @malloc(i64 noundef %54) #27
  br label %59

59:                                               ; preds = %57, %55
  %60 = phi ptr [ %56, %55 ], [ %58, %57 ]
  store ptr %60, ptr %51, align 8, !tbaa !84
  store i32 %50, ptr %1, align 8, !tbaa !86
  br label %Vec_IntPush.exit

Vec_IntPush.exit:                                 ; preds = %.Vec_IntGrow.exit10_crit_edge.i, %Vec_IntGrow.exit.i, %59
  %61 = phi ptr [ %.pre.i, %.Vec_IntGrow.exit10_crit_edge.i ], [ %60, %59 ], [ %48, %Vec_IntGrow.exit.i ]
  %62 = load i32, ptr %35, align 4, !tbaa !85
  %63 = add nsw i32 %62, 1
  store i32 %63, ptr %35, align 4, !tbaa !85
  %64 = sext i32 %62 to i64
  %65 = getelementptr inbounds i32, ptr %61, i64 %64
  store i32 %.val20, ptr %65, align 4, !tbaa !96
  br label %66

66:                                               ; preds = %Vec_IntPush.exit, %.critedge
  ret i32 %.0.lcssa
}